(dp0
S'ref_point'
p1
(dp2
sS'rw_dict'
p3
(dp4
S'cW_1p_cWtil_0p_cHW_1p_cHWtil_0p_cHWB_0p_cHWBtil_0p'
p5
I9
sS'cW_1p_cWtil_0p_cHW_0p_cHWtil_0p_cHWB_0p_cHWBtil_1p'
p6
I12
sS'cW_0p_cWtil_0p_cHW_0p_cHWtil_0p_cHWB_1p_cHWBtil_0p'
p7
I5
sS'cW_2p_cWtil_0p_cHW_0p_cHWtil_0p_cHWB_0p_cHWBtil_0p'
p8
I7
sS'cW_0p_cWtil_1p_cHW_0p_cHWtil_0p_cHWB_0p_cHWBtil_1p'
p9
I17
sS'cW_1p_cWtil_1p_cHW_0p_cHWtil_0p_cHWB_0p_cHWBtil_0p'
p10
I8
sS'cW_0p_cWtil_0p_cHW_0p_cHWtil_2p_cHWB_0p_cHWBtil_0p'
p11
I22
sS'cW_0p_cWtil_1p_cHW_1p_cHWtil_0p_cHWB_0p_cHWBtil_0p'
p12
I14
sS'cW_0p_cWtil_0p_cHW_2p_cHWtil_0p_cHWB_0p_cHWBtil_0p'
p13
I18
sS'cW_0p_cWtil_2p_cHW_0p_cHWtil_0p_cHWB_0p_cHWBtil_0p'
p14
I13
sS'cW_0p_cWtil_0p_cHW_0p_cHWtil_0p_cHWB_0p_cHWBtil_2p'
p15
I27
sS'cW_0p_cWtil_0p_cHW_0p_cHWtil_0p_cHWB_0p_cHWBtil_0p'
p16
I0
sS'cW_0p_cWtil_0p_cHW_1p_cHWtil_0p_cHWB_0p_cHWBtil_0p'
p17
I3
sS'cW_1p_cWtil_0p_cHW_0p_cHWtil_1p_cHWB_0p_cHWBtil_0p'
p18
I10
sS'cW_1p_cWtil_0p_cHW_0p_cHWtil_0p_cHWB_0p_cHWBtil_0p'
p19
I1
sS'cW_0p_cWtil_0p_cHW_0p_cHWtil_0p_cHWB_1p_cHWBtil_1p'
p20
I26
sS'cW_0p_cWtil_0p_cHW_1p_cHWtil_0p_cHWB_1p_cHWBtil_0p'
p21
I20
sS'cW_0p_cWtil_0p_cHW_0p_cHWtil_1p_cHWB_0p_cHWBtil_0p'
p22
I4
sS'cW_0p_cWtil_0p_cHW_0p_cHWtil_0p_cHWB_2p_cHWBtil_0p'
p23
I25
sS'cW_0p_cWtil_1p_cHW_0p_cHWtil_0p_cHWB_0p_cHWBtil_0p'
p24
I2
sS'cW_0p_cWtil_0p_cHW_0p_cHWtil_1p_cHWB_1p_cHWBtil_0p'
p25
I23
sS'cW_1p_cWtil_0p_cHW_0p_cHWtil_0p_cHWB_1p_cHWBtil_0p'
p26
I11
sS'cW_0p_cWtil_1p_cHW_0p_cHWtil_1p_cHWB_0p_cHWBtil_0p'
p27
I15
sS'cW_0p_cWtil_0p_cHW_0p_cHWtil_1p_cHWB_0p_cHWBtil_1p'
p28
I24
sS'cW_0p_cWtil_1p_cHW_0p_cHWtil_0p_cHWB_1p_cHWBtil_0p'
p29
I16
sS'cW_0p_cWtil_0p_cHW_1p_cHWtil_1p_cHWB_0p_cHWBtil_0p'
p30
I19
sS'cW_0p_cWtil_0p_cHW_1p_cHWtil_0p_cHWB_0p_cHWBtil_1p'
p31
I21
sS'cW_0p_cWtil_0p_cHW_0p_cHWtil_0p_cHWB_0p_cHWBtil_1p'
p32
I6
ssS'order'
p33
(dp34
g33
I2
ss.